; Function Attrs: mustprogress uwtable
define hidden noundef ptr @_ZN7datalog18check_table_plugin24mk_filter_by_negation_fnERKNS_10table_baseES3_jPKjS5_(ptr noundef nonnull align 8 dereferenceable(52) %this, ptr noundef nonnull align 8 dereferenceable(36) %t, ptr noundef nonnull align 8 dereferenceable(36) %negated_obj, i32 noundef %joined_col_cnt, ptr noundef %t_cols, ptr noundef %negated_cols) unnamed_addr #3 align 2 {
entry:
  %m_plugin.i.i = getelementptr inbounds i8, ptr %t, i64 8
  %0 = load ptr, ptr %m_plugin.i.i, align 8
  %cmp.i = icmp eq ptr %0, %this
  %m_plugin.i.i3 = getelementptr inbounds i8, ptr %negated_obj, i64 8
  %1 = load ptr, ptr %m_plugin.i.i3, align 8
  %cmp.i4 = icmp eq ptr %1, %this
  %or.cond = select i1 %cmp.i, i1 %cmp.i4, i1 false
  br i1 %or.cond, label %if.then, label %return

if.then:                                          ; preds = %entry
  %call3 = tail call noalias noundef ptr @_ZN6memory8allocateEm(i64 noundef 24)
  tail call void @_ZN7datalog18check_table_plugin21filter_by_negation_fnC2ERS0_RKNS_10table_baseES5_jPKjS7_(ptr noundef nonnull align 8 dereferenceable(24) %call3, ptr noundef nonnull align 8 dereferenceable(52) %this, ptr noundef nonnull align 8 dereferenceable(36) %t, ptr noundef nonnull align 8 dereferenceable(36) %negated_obj, i32 noundef %joined_col_cnt, ptr noundef %t_cols, ptr noundef %negated_cols)
  br label %return

return:                                           ; preds = %entry, %if.then
  %retval.0 = phi ptr [ %call3, %if.then ], [ null, %entry ]
  ret ptr %retval.0
}